; Function Attrs: norecurse nounwind uwtable
define internal void @_ZN5faiss17fvec_L2sqr_by_idxEPfPKfS2_PKlmmm.omp_outlined(ptr noalias nocapture noundef readonly %0, ptr noalias nocapture readnone %1, ptr nocapture noundef nonnull readonly align 8 dereferenceable(8) %2, ptr nocapture noundef nonnull readonly align 8 dereferenceable(8) %3, ptr nocapture noundef nonnull readonly align 8 dereferenceable(8) %4, ptr nocapture noundef nonnull readonly align 8 dereferenceable(8) %5, ptr nocapture noundef nonnull readonly align 8 dereferenceable(8) %6, ptr nocapture noundef nonnull readonly align 8 dereferenceable(8) %7, ptr nocapture noundef nonnull readonly align 8 dereferenceable(8) %8) #1 personality ptr @__gxx_personality_v0 {
  %10 = alloca i64, align 8
  %11 = alloca i64, align 8
  %12 = alloca i64, align 8
  %13 = alloca i32, align 4
  %14 = load i64, ptr %2, align 8
  %.not = icmp eq i64 %14, 0
  br i1 %.not, label %53, label %15

15:                                               ; preds = %9
  %16 = add i64 %14, -1
  store i64 0, ptr %10, align 8
  store i64 %16, ptr %11, align 8
  store i64 1, ptr %12, align 8
  store i32 0, ptr %13, align 4
  %17 = load i32, ptr %0, align 4
  call void @__kmpc_for_static_init_8u(ptr nonnull @1, i32 %17, i32 34, ptr nonnull %13, ptr nonnull %10, ptr nonnull %11, ptr nonnull %12, i64 1, i64 1)
  %18 = load i64, ptr %11, align 8
  %19 = call i64 @llvm.umin.i64(i64 %18, i64 %16)
  store i64 %19, ptr %11, align 8
  %20 = load i64, ptr %10, align 8
  %21 = icmp ugt i64 %20, %19
  %22 = load i64, ptr %4, align 8
  %.not37 = icmp eq i64 %22, 0
  %or.cond = select i1 %21, i1 true, i1 %.not37
  br i1 %or.cond, label %._crit_edge36, label %.lr.ph35.split

.lr.ph35.split:                                   ; preds = %15, %._crit_edge
  %23 = phi i64 [ %48, %._crit_edge ], [ %19, %15 ]
  %24 = phi i64 [ %49, %._crit_edge ], [ %22, %15 ]
  %.03033 = phi i64 [ %50, %._crit_edge ], [ %20, %15 ]
  %25 = load ptr, ptr %3, align 8
  %26 = mul i64 %24, %.03033
  %27 = getelementptr inbounds i64, ptr %25, i64 %26
  %28 = load ptr, ptr %5, align 8
  %29 = load i64, ptr %6, align 8
  %30 = mul i64 %29, %.03033
  %31 = getelementptr inbounds float, ptr %28, i64 %30
  %32 = load ptr, ptr %7, align 8
  %33 = getelementptr inbounds float, ptr %32, i64 %26
  %.not38 = icmp eq i64 %24, 0
  br i1 %.not38, label %._crit_edge, label %.lr.ph

.lr.ph:                                           ; preds = %.lr.ph35.split, %43
  %.032 = phi i64 [ %45, %43 ], [ 0, %.lr.ph35.split ]
  %34 = getelementptr inbounds i64, ptr %27, i64 %.032
  %35 = load i64, ptr %34, align 8
  %36 = icmp slt i64 %35, 0
  br i1 %36, label %43, label %37

37:                                               ; preds = %.lr.ph
  %38 = load ptr, ptr %8, align 8
  %39 = load i64, ptr %6, align 8
  %40 = mul i64 %39, %35
  %41 = getelementptr inbounds float, ptr %38, i64 %40
  %42 = invoke noundef float @_ZN5faiss10fvec_L2sqrEPKfS1_m(ptr noundef %31, ptr noundef %41, i64 noundef %39)
          to label %43 unwind label %54

43:                                               ; preds = %37, %.lr.ph
  %.sink = phi float [ 0x7FF0000000000000, %.lr.ph ], [ %42, %37 ]
  %44 = getelementptr inbounds float, ptr %33, i64 %.032
  store float %.sink, ptr %44, align 4
  %45 = add nuw i64 %.032, 1
  %46 = load i64, ptr %4, align 8
  %47 = icmp ult i64 %45, %46
  br i1 %47, label %.lr.ph, label %._crit_edge.loopexit, !llvm.loop !133

._crit_edge.loopexit:                             ; preds = %43
  %.pre = load i64, ptr %11, align 8
  br label %._crit_edge

._crit_edge:                                      ; preds = %._crit_edge.loopexit, %.lr.ph35.split
  %48 = phi i64 [ %.pre, %._crit_edge.loopexit ], [ %23, %.lr.ph35.split ]
  %49 = phi i64 [ %46, %._crit_edge.loopexit ], [ 0, %.lr.ph35.split ]
  %50 = add nuw i64 %.03033, 1
  %51 = add i64 %48, 1
  %52 = icmp ult i64 %50, %51
  br i1 %52, label %.lr.ph35.split, label %._crit_edge36, !llvm.loop !134

._crit_edge36:                                    ; preds = %._crit_edge, %15
  call void @__kmpc_for_static_fini(ptr nonnull @1, i32 %17)
  br label %53

53:                                               ; preds = %._crit_edge36, %9
  ret void

54:                                               ; preds = %37
  %55 = landingpad { ptr, i32 }
          catch ptr null
  %56 = extractvalue { ptr, i32 } %55, 0
  call void @__clang_call_terminate(ptr %56) #22
  unreachable
}